target datalayout = "e-m:e-p270:32:32-p271:32:32-p272:64:64-i64:64-i128:128-f80:128-n8:16:32:64-S128"
target triple = "x86_64-pc-linux-gnu"

%class.Type.base = type <{ ptr, ptr, i32 }>
%class.TypeOopPtr = type { %class.TypePtr.base, ptr, ptr, ptr, i8, i8, i8, i8, i32 }
%class.TypePtr.base = type <{ %class.Type.base, [4 x i8], ptr, i32, i32, i32 }>
%class.ciMetadata = type { %class.ciBaseObject.base, ptr }
%class.ciBaseObject.base = type <{ ptr, i32 }>
%class.ciInstanceKlass = type { %class.ciKlass.base, ptr, ptr, i8, i8, i8, i32, i8, i8, i8, i8, i8, [3 x i8], %class.ciFlags, ptr, ptr, ptr, ptr, i32, ptr, ptr }
%class.ciKlass.base = type <{ %class.ciType.base, [7 x i8], ptr, i32 }>
%class.ciType.base = type <{ %class.ciMetadata, i8 }>
%class.ciFlags = type <{ i32, i8, i8, [2 x i8] }>

; Function Attrs: mustprogress nounwind uwtable
define linkonce_odr hidden noundef zeroext i1 @_ZNK10ciMetadata9is_loadedEv(ptr noundef nonnull align 8 dereferenceable(24) %0) #1 comdat align 2 {
  %2 = alloca ptr, align 8
  store ptr %0, ptr %2, align 8
  %3 = load ptr, ptr %2, align 8
  %4 = getelementptr inbounds %class.ciMetadata, ptr %3, i32 0, i32 1
  %5 = load ptr, ptr %4, align 8
  %6 = icmp ne ptr %5, null
  br i1 %6, label %12, label %7

7:                                                ; preds = %1
  %8 = load ptr, ptr %3, align 8
  %9 = getelementptr inbounds ptr, ptr %8, i64 4
  %10 = load ptr, ptr %9, align 8
  %11 = call noundef zeroext i1 %10(ptr noundef nonnull align 8 dereferenceable(24) %3)
  br label %12

12:                                               ; preds = %7, %1
  %13 = phi i1 [ true, %1 ], [ %11, %7 ]
  ret i1 %13
}

; Function Attrs: mustprogress nounwind uwtable
define linkonce_odr hidden void @_ZN15ciInstanceKlass16update_if_sharedEN13InstanceKlass10ClassStateE(ptr noundef nonnull align 8 dereferenceable(144) %0, i8 noundef zeroext %1) #1 comdat align 2 {
  %3 = alloca ptr, align 8
  %4 = alloca i8, align 1
  store ptr %0, ptr %3, align 8
  store i8 %1, ptr %4, align 1
  %5 = load ptr, ptr %3, align 8
  %6 = getelementptr inbounds %class.ciInstanceKlass, ptr %5, i32 0, i32 4
  %7 = load i8, ptr %6, align 1
  %8 = trunc i8 %7 to i1
  br i1 %8, label %9, label %20

9:                                                ; preds = %2
  %10 = getelementptr inbounds %class.ciInstanceKlass, ptr %5, i32 0, i32 3
  %11 = load i8, ptr %10, align 8
  %12 = zext i8 %11 to i32
  %13 = load i8, ptr %4, align 1
  %14 = zext i8 %13 to i32
  %15 = icmp ne i32 %12, %14
  br i1 %15, label %16, label %20

16:                                               ; preds = %9
  %17 = call noundef zeroext i1 @_ZNK10ciMetadata9is_loadedEv(ptr noundef nonnull align 8 dereferenceable(24) %5)
  br i1 %17, label %18, label %19

18:                                               ; preds = %16
  call void @_ZN15ciInstanceKlass25compute_shared_init_stateEv(ptr noundef nonnull align 8 dereferenceable(144) %5)
  br label %19

19:                                               ; preds = %18, %16
  br label %20

20:                                               ; preds = %19, %9, %2
  ret void
}

; Function Attrs: mustprogress nounwind uwtable
define linkonce_odr hidden noundef zeroext i1 @_ZN15ciInstanceKlass14is_initializedEv(ptr noundef nonnull align 8 dereferenceable(144) %0) #1 comdat align 2 {
  %2 = alloca ptr, align 8
  store ptr %0, ptr %2, align 8
  %3 = load ptr, ptr %2, align 8
  call void @_ZN15ciInstanceKlass16update_if_sharedEN13InstanceKlass10ClassStateE(ptr noundef nonnull align 8 dereferenceable(144) %3, i8 noundef zeroext 4)
  %4 = getelementptr inbounds %class.ciInstanceKlass, ptr %3, i32 0, i32 3
  %5 = load i8, ptr %4, align 8
  %6 = zext i8 %5 to i32
  %7 = icmp eq i32 %6, 4
  ret i1 %7
}

; Function Attrs: mustprogress nounwind uwtable
define linkonce_odr hidden noundef ptr @_ZN10ciMetadata17as_instance_klassEv(ptr noundef nonnull align 8 dereferenceable(24) %0) #1 comdat align 2 {
  %2 = alloca ptr, align 8
  store ptr %0, ptr %2, align 8
  %3 = load ptr, ptr %2, align 8
  ret ptr %3
}

; Function Attrs: mustprogress nounwind uwtable
define linkonce_odr hidden noundef ptr @_ZN8ciObject11as_instanceEv(ptr noundef nonnull align 8 dereferenceable(40) %0) #1 comdat align 2 {
  %2 = alloca ptr, align 8
  store ptr %0, ptr %2, align 8
  %3 = load ptr, ptr %2, align 8
  ret ptr %3
}

; Function Attrs: mustprogress nounwind uwtable
define linkonce_odr hidden noundef ptr @_ZNK10TypeOopPtr9const_oopEv(ptr noundef nonnull align 8 dereferenceable(80) %0) #1 comdat align 2 {
  %2 = alloca ptr, align 8
  store ptr %0, ptr %2, align 8
  %3 = load ptr, ptr %2, align 8
  %4 = getelementptr inbounds %class.TypeOopPtr, ptr %3, i32 0, i32 1
  %5 = load ptr, ptr %4, align 8
  ret ptr %5
}

; Function Attrs: mustprogress nounwind uwtable
define internal noundef zeroext i1 @_ZL20is_klass_initializedPK11TypeInstPtr(ptr noundef %0) #1 {
  %2 = alloca i1, align 1
  %3 = alloca ptr, align 8
  %4 = alloca ptr, align 8
  store ptr %0, ptr %3, align 8
  %5 = load ptr, ptr %3, align 8
  %6 = call noundef ptr @_ZNK10TypeOopPtr9const_oopEv(ptr noundef nonnull align 8 dereferenceable(80) %5)
  %7 = icmp eq ptr %6, null
  br i1 %7, label %8, label %9

8:                                                ; preds = %1
  store i1 false, ptr %2, align 1
  br label %17

9:                                                ; preds = %1
  %10 = load ptr, ptr %3, align 8
  %11 = call noundef ptr @_ZNK10TypeOopPtr9const_oopEv(ptr noundef nonnull align 8 dereferenceable(80) %10)
  %12 = call noundef ptr @_ZN8ciObject11as_instanceEv(ptr noundef nonnull align 8 dereferenceable(40) %11)
  %13 = call noundef ptr @_ZN10ciInstance21java_lang_Class_klassEv(ptr noundef nonnull align 8 dereferenceable(40) %12)
  %14 = call noundef ptr @_ZN10ciMetadata17as_instance_klassEv(ptr noundef nonnull align 8 dereferenceable(24) %13)
  store ptr %14, ptr %4, align 8
  %15 = load ptr, ptr %4, align 8
  %16 = call noundef zeroext i1 @_ZN15ciInstanceKlass14is_initializedEv(ptr noundef nonnull align 8 dereferenceable(144) %15)
  store i1 %16, ptr %2, align 1
  br label %17

17:                                               ; preds = %9, %8
  %18 = load i1, ptr %2, align 1
  ret i1 %18
}