; Function Attrs: mustprogress nounwind uwtable
define internal fastcc noundef zeroext i1 @_ZL20is_klass_initializedPK11TypeInstPtr(ptr %.48.val) unnamed_addr #0 {
  %1 = icmp eq ptr %.48.val, null
  br i1 %1, label %18, label %2

2:                                                ; preds = %0
  %3 = tail call noundef ptr @_ZN10ciInstance21java_lang_Class_klassEv(ptr noundef nonnull align 8 dereferenceable(40) %.48.val) #9
  %4 = getelementptr inbounds i8, ptr %3, i64 65
  %5 = load i8, ptr %4, align 1
  %6 = trunc i8 %5 to i1
  %7 = getelementptr inbounds i8, ptr %3, i64 64
  %8 = load i8, ptr %7, align 8
  %.not.i.i = icmp ne i8 %8, 4
  %or.cond.not.i.i = select i1 %6, i1 %.not.i.i, i1 false
  br i1 %or.cond.not.i.i, label %9, label %_ZN15ciInstanceKlass14is_initializedEv.exit

9:                                                ; preds = %2
  %10 = getelementptr inbounds i8, ptr %3, i64 16
  %11 = load ptr, ptr %10, align 8
  %.not.i.i.i = icmp eq ptr %11, null
  br i1 %.not.i.i.i, label %_ZNK10ciMetadata9is_loadedEv.exit.i.i, label %_ZNK10ciMetadata9is_loadedEv.exit.thread.i.i

_ZNK10ciMetadata9is_loadedEv.exit.i.i:            ; preds = %9
  %12 = load ptr, ptr %3, align 8
  %13 = getelementptr inbounds i8, ptr %12, i64 32
  %14 = load ptr, ptr %13, align 8
  %15 = tail call noundef zeroext i1 %14(ptr noundef nonnull align 8 dereferenceable(24) %3) #9
  br i1 %15, label %_ZNK10ciMetadata9is_loadedEv.exit.thread.i.i, label %_ZN15ciInstanceKlass14is_initializedEv.exit

_ZNK10ciMetadata9is_loadedEv.exit.thread.i.i:     ; preds = %_ZNK10ciMetadata9is_loadedEv.exit.i.i, %9
  tail call void @_ZN15ciInstanceKlass25compute_shared_init_stateEv(ptr noundef nonnull align 8 dereferenceable(144) %3) #9
  br label %_ZN15ciInstanceKlass14is_initializedEv.exit

_ZN15ciInstanceKlass14is_initializedEv.exit:      ; preds = %2, %_ZNK10ciMetadata9is_loadedEv.exit.i.i, %_ZNK10ciMetadata9is_loadedEv.exit.thread.i.i
  %16 = load i8, ptr %7, align 8
  %17 = icmp eq i8 %16, 4
  br label %18

18:                                               ; preds = %0, %_ZN15ciInstanceKlass14is_initializedEv.exit
  %.0 = phi i1 [ %17, %_ZN15ciInstanceKlass14is_initializedEv.exit ], [ false, %0 ]
  ret i1 %.0
}